target datalayout = "e-m:e-p270:32:32-p271:32:32-p272:64:64-i64:64-i128:128-f80:128-n8:16:32:64-S128"
target triple = "x86_64-pc-linux-gnu"

%"class.cv::Mat" = type { i32, i32, i32, i32, ptr, ptr, ptr, ptr, ptr, ptr, %"struct.cv::MatSize", %"struct.cv::MatStep" }
%"struct.cv::MatSize" = type { ptr }
%"struct.cv::MatStep" = type { ptr, [2 x i64] }
%"class.cv::utils::trace::details::Region" = type <{ ptr, i32, [4 x i8] }>
%"class.cv::_OutputArray" = type { %"class.cv::_InputArray" }
%"class.cv::_InputArray" = type { i32, ptr, %"class.cv::Size_" }
%"class.cv::Size_" = type { i32, i32 }

; Function Attrs: inlinehint mustprogress nounwind uwtable
define linkonce_odr hidden void @_ZN2cv5Size_IiEC2Ev(ptr noundef nonnull align 4 dereferenceable(8) %0) unnamed_addr #7 comdat align 2 {
  %2 = alloca ptr, align 8
  store ptr %0, ptr %2, align 8, !tbaa !110
  %3 = load ptr, ptr %2, align 8
  %4 = getelementptr inbounds nuw %"class.cv::Size_", ptr %3, i32 0, i32 0
  store i32 0, ptr %4, align 4, !tbaa !112
  %5 = getelementptr inbounds nuw %"class.cv::Size_", ptr %3, i32 0, i32 1
  store i32 0, ptr %5, align 4, !tbaa !113
  ret void
}

; Function Attrs: inlinehint mustprogress nounwind uwtable
define linkonce_odr hidden void @_ZN2cv11_InputArray4initEiPKv(ptr noundef nonnull align 8 dereferenceable(24) %0, i32 noundef %1, ptr noundef %2) #7 comdat align 2 {
  %4 = alloca ptr, align 8
  %5 = alloca i32, align 4
  %6 = alloca ptr, align 8
  store ptr %0, ptr %4, align 8, !tbaa !3
  store i32 %1, ptr %5, align 4, !tbaa !8
  store ptr %2, ptr %6, align 8, !tbaa !108
  %7 = load ptr, ptr %4, align 8
  %8 = load i32, ptr %5, align 4, !tbaa !8
  %9 = getelementptr inbounds nuw %"class.cv::_InputArray", ptr %7, i32 0, i32 0
  store i32 %8, ptr %9, align 8, !tbaa !109
  %10 = load ptr, ptr %6, align 8, !tbaa !108
  %11 = getelementptr inbounds nuw %"class.cv::_InputArray", ptr %7, i32 0, i32 1
  store ptr %10, ptr %11, align 8, !tbaa !26
  ret void
}

; Function Attrs: inlinehint mustprogress uwtable
define linkonce_odr hidden void @_ZN2cv11_InputArrayC2Ev(ptr noundef nonnull align 8 dereferenceable(24) %0) unnamed_addr #6 comdat align 2 {
  %2 = alloca ptr, align 8
  store ptr %0, ptr %2, align 8, !tbaa !3
  %3 = load ptr, ptr %2, align 8
  %4 = getelementptr inbounds nuw %"class.cv::_InputArray", ptr %3, i32 0, i32 2
  call void @_ZN2cv5Size_IiEC2Ev(ptr noundef nonnull align 4 dereferenceable(8) %4)
  call void @_ZN2cv11_InputArray4initEiPKv(ptr noundef nonnull align 8 dereferenceable(24) %3, i32 noundef 0, ptr noundef null)
  ret void
}

; Function Attrs: inlinehint mustprogress uwtable
define linkonce_odr hidden void @_ZN2cv11_InputArrayC2ERKNS_3MatE(ptr noundef nonnull align 8 dereferenceable(24) %0, ptr noundef nonnull align 8 dereferenceable(96) %1) unnamed_addr #6 comdat align 2 {
  %3 = alloca ptr, align 8
  %4 = alloca ptr, align 8
  store ptr %0, ptr %3, align 8, !tbaa !3
  store ptr %1, ptr %4, align 8, !tbaa !29
  %5 = load ptr, ptr %3, align 8
  %6 = getelementptr inbounds nuw %"class.cv::_InputArray", ptr %5, i32 0, i32 2
  call void @_ZN2cv5Size_IiEC2Ev(ptr noundef nonnull align 4 dereferenceable(8) %6)
  %7 = load ptr, ptr %4, align 8, !tbaa !29
  call void @_ZN2cv11_InputArray4initEiPKv(ptr noundef nonnull align 8 dereferenceable(24) %5, i32 noundef 16842752, ptr noundef %7)
  ret void
}

; Function Attrs: inlinehint mustprogress nounwind uwtable
define linkonce_odr hidden void @_ZN2cv11_InputArrayD2Ev(ptr noundef nonnull align 8 dereferenceable(24) %0) unnamed_addr #7 comdat align 2 {
  %2 = alloca ptr, align 8
  store ptr %0, ptr %2, align 8, !tbaa !3
  ret void
}

; Function Attrs: inlinehint mustprogress uwtable
define linkonce_odr hidden void @_ZN2cv12_OutputArrayC2ERNS_3MatE(ptr noundef nonnull align 8 dereferenceable(24) %0, ptr noundef nonnull align 8 dereferenceable(96) %1) unnamed_addr #6 comdat align 2 personality ptr @__gxx_personality_v0 {
  %3 = alloca ptr, align 8
  %4 = alloca ptr, align 8
  %5 = alloca ptr, align 8
  %6 = alloca i32, align 4
  store ptr %0, ptr %3, align 8, !tbaa !12
  store ptr %1, ptr %4, align 8, !tbaa !29
  %7 = load ptr, ptr %3, align 8
  call void @_ZN2cv11_InputArrayC2Ev(ptr noundef nonnull align 8 dereferenceable(24) %7)
  %8 = load ptr, ptr %4, align 8, !tbaa !29
  invoke void @_ZN2cv11_InputArray4initEiPKv(ptr noundef nonnull align 8 dereferenceable(24) %7, i32 noundef 33619968, ptr noundef %8)
          to label %9 unwind label %10

9:                                                ; preds = %2
  ret void

10:                                               ; preds = %2
  %11 = landingpad { ptr, i32 }
          cleanup
  %12 = extractvalue { ptr, i32 } %11, 0
  store ptr %12, ptr %5, align 8
  %13 = extractvalue { ptr, i32 } %11, 1
  store i32 %13, ptr %6, align 4
  call void @_ZN2cv11_InputArrayD2Ev(ptr noundef nonnull align 8 dereferenceable(24) %7) #3
  br label %14

14:                                               ; preds = %10
  %15 = load ptr, ptr %5, align 8
  %16 = load i32, ptr %6, align 4
  %17 = insertvalue { ptr, i32 } poison, ptr %15, 0
  %18 = insertvalue { ptr, i32 } %17, i32 %16, 1
  resume { ptr, i32 } %18
}

; Function Attrs: mustprogress uwtable
define void @_ZN2cv16findEssentialMatERKNS_11_InputArrayES2_S2_S2_S2_S2_iddRKNS_12_OutputArrayE(ptr dead_on_unwind noalias writable sret(%"class.cv::Mat") align 8 %0, ptr noundef nonnull align 8 dereferenceable(24) %1, ptr noundef nonnull align 8 dereferenceable(24) %2, ptr noundef nonnull align 8 dereferenceable(24) %3, ptr noundef nonnull align 8 dereferenceable(24) %4, ptr noundef nonnull align 8 dereferenceable(24) %5, ptr noundef nonnull align 8 dereferenceable(24) %6, i32 noundef %7, double noundef %8, double noundef %9, ptr noundef nonnull align 8 dereferenceable(24) %10) #4 personality ptr @__gxx_personality_v0 {
  %12 = alloca ptr, align 8
  %13 = alloca ptr, align 8
  %14 = alloca ptr, align 8
  %15 = alloca ptr, align 8
  %16 = alloca ptr, align 8
  %17 = alloca ptr, align 8
  %18 = alloca ptr, align 8
  %19 = alloca i32, align 4
  %20 = alloca double, align 8
  %21 = alloca double, align 8
  %22 = alloca ptr, align 8
  %23 = alloca %"class.cv::utils::trace::details::Region", align 8
  %24 = alloca %"class.cv::Mat", align 8
  %25 = alloca %"class.cv::Mat", align 8
  %26 = alloca %"class.cv::_OutputArray", align 8
  %27 = alloca ptr, align 8
  %28 = alloca i32, align 4
  %29 = alloca %"class.cv::_OutputArray", align 8
  %30 = alloca %"class.cv::_InputArray", align 8
  %31 = alloca %"class.cv::_InputArray", align 8
  store ptr %0, ptr %12, align 8
  store ptr %1, ptr %13, align 8, !tbaa !3
  store ptr %2, ptr %14, align 8, !tbaa !3
  store ptr %3, ptr %15, align 8, !tbaa !3
  store ptr %4, ptr %16, align 8, !tbaa !3
  store ptr %5, ptr %17, align 8, !tbaa !3
  store ptr %6, ptr %18, align 8, !tbaa !3
  store i32 %7, ptr %19, align 4, !tbaa !8
  store double %8, ptr %20, align 8, !tbaa !10
  store double %9, ptr %21, align 8, !tbaa !10
  store ptr %10, ptr %22, align 8, !tbaa !12
  call void @llvm.lifetime.start.p0(i64 16, ptr %23) #3
  call void @_ZN2cv5utils5trace7details6RegionC1ERKNS3_21LocationStaticStorageE(ptr noundef nonnull align 8 dereferenceable(12) %23, ptr noundef nonnull align 8 dereferenceable(32) @_ZZN2cv16findEssentialMatERKNS_11_InputArrayES2_S2_S2_S2_S2_iddRKNS_12_OutputArrayEE25__cv_trace_location_fn524)
  call void @llvm.lifetime.start.p0(i64 96, ptr %24) #3
  call void @_ZN2cv3MatC1Ev(ptr noundef nonnull align 8 dereferenceable(96) %24) #3
  call void @llvm.lifetime.start.p0(i64 96, ptr %25) #3
  call void @_ZN2cv3MatC1Ev(ptr noundef nonnull align 8 dereferenceable(96) %25) #3
  %32 = load ptr, ptr %13, align 8, !tbaa !3
  call void @llvm.lifetime.start.p0(i64 24, ptr %26) #3
  invoke void @_ZN2cv12_OutputArrayC2ERNS_3MatE(ptr noundef nonnull align 8 dereferenceable(24) %26, ptr noundef nonnull align 8 dereferenceable(96) %24)
          to label %33 unwind label %59

33:                                               ; preds = %11
  %34 = load ptr, ptr %15, align 8, !tbaa !3
  %35 = load ptr, ptr %16, align 8, !tbaa !3
  %36 = invoke noundef nonnull align 8 dereferenceable(24) ptr @_ZN2cv7noArrayEv()
          to label %37 unwind label %63

37:                                               ; preds = %33
  %38 = invoke noundef nonnull align 8 dereferenceable(24) ptr @_ZN2cv7noArrayEv()
          to label %39 unwind label %63

39:                                               ; preds = %37
  invoke void @_ZN2cv15undistortPointsERKNS_11_InputArrayERKNS_12_OutputArrayES2_S2_S2_S2_(ptr noundef nonnull align 8 dereferenceable(24) %32, ptr noundef nonnull align 8 dereferenceable(24) %26, ptr noundef nonnull align 8 dereferenceable(24) %34, ptr noundef nonnull align 8 dereferenceable(24) %35, ptr noundef nonnull align 8 dereferenceable(24) %36, ptr noundef nonnull align 8 dereferenceable(24) %38)
          to label %40 unwind label %63

40:                                               ; preds = %39
  call void @_ZN2cv11_InputArrayD2Ev(ptr noundef nonnull align 8 dereferenceable(24) %26) #3
  call void @llvm.lifetime.end.p0(i64 24, ptr %26) #3
  %41 = load ptr, ptr %14, align 8, !tbaa !3
  call void @llvm.lifetime.start.p0(i64 24, ptr %29) #3
  invoke void @_ZN2cv12_OutputArrayC2ERNS_3MatE(ptr noundef nonnull align 8 dereferenceable(24) %29, ptr noundef nonnull align 8 dereferenceable(96) %25)
          to label %42 unwind label %68

42:                                               ; preds = %40
  %43 = load ptr, ptr %17, align 8, !tbaa !3
  %44 = load ptr, ptr %18, align 8, !tbaa !3
  %45 = invoke noundef nonnull align 8 dereferenceable(24) ptr @_ZN2cv7noArrayEv()
          to label %46 unwind label %72

46:                                               ; preds = %42
  %47 = invoke noundef nonnull align 8 dereferenceable(24) ptr @_ZN2cv7noArrayEv()
          to label %48 unwind label %72

48:                                               ; preds = %46
  invoke void @_ZN2cv15undistortPointsERKNS_11_InputArrayERKNS_12_OutputArrayES2_S2_S2_S2_(ptr noundef nonnull align 8 dereferenceable(24) %41, ptr noundef nonnull align 8 dereferenceable(24) %29, ptr noundef nonnull align 8 dereferenceable(24) %43, ptr noundef nonnull align 8 dereferenceable(24) %44, ptr noundef nonnull align 8 dereferenceable(24) %45, ptr noundef nonnull align 8 dereferenceable(24) %47)
          to label %49 unwind label %72

49:                                               ; preds = %48
  call void @_ZN2cv11_InputArrayD2Ev(ptr noundef nonnull align 8 dereferenceable(24) %29) #3
  call void @llvm.lifetime.end.p0(i64 24, ptr %29) #3
  call void @llvm.lifetime.start.p0(i64 24, ptr %30) #3
  invoke void @_ZN2cv11_InputArrayC2ERKNS_3MatE(ptr noundef nonnull align 8 dereferenceable(24) %30, ptr noundef nonnull align 8 dereferenceable(96) %24)
          to label %50 unwind label %77

50:                                               ; preds = %49
  call void @llvm.lifetime.start.p0(i64 24, ptr %31) #3
  invoke void @_ZN2cv11_InputArrayC2ERKNS_3MatE(ptr noundef nonnull align 8 dereferenceable(24) %31, ptr noundef nonnull align 8 dereferenceable(96) %25)
          to label %51 unwind label %81

51:                                               ; preds = %50
  %52 = load ptr, ptr %15, align 8, !tbaa !3
  %53 = load ptr, ptr %17, align 8, !tbaa !3
  %54 = load i32, ptr %19, align 4, !tbaa !8
  %55 = load double, ptr %20, align 8, !tbaa !10
  %56 = load double, ptr %21, align 8, !tbaa !10
  %57 = load ptr, ptr %22, align 8, !tbaa !12
  invoke void @_ZN2cvL17findEssentialMat_ERKNS_11_InputArrayES2_S2_S2_iddRKNS_12_OutputArrayE(ptr dead_on_unwind writable sret(%"class.cv::Mat") align 8 %0, ptr noundef nonnull align 8 dereferenceable(24) %30, ptr noundef nonnull align 8 dereferenceable(24) %31, ptr noundef nonnull align 8 dereferenceable(24) %52, ptr noundef nonnull align 8 dereferenceable(24) %53, i32 noundef %54, double noundef %55, double noundef %56, ptr noundef nonnull align 8 dereferenceable(24) %57)
          to label %58 unwind label %85

58:                                               ; preds = %51
  call void @_ZN2cv11_InputArrayD2Ev(ptr noundef nonnull align 8 dereferenceable(24) %31) #3
  call void @llvm.lifetime.end.p0(i64 24, ptr %31) #3
  call void @_ZN2cv11_InputArrayD2Ev(ptr noundef nonnull align 8 dereferenceable(24) %30) #3
  call void @llvm.lifetime.end.p0(i64 24, ptr %30) #3
  call void @_ZN2cv3MatD1Ev(ptr noundef nonnull align 8 dereferenceable(96) %25) #3
  call void @llvm.lifetime.end.p0(i64 96, ptr %25) #3
  call void @_ZN2cv3MatD1Ev(ptr noundef nonnull align 8 dereferenceable(96) %24) #3
  call void @llvm.lifetime.end.p0(i64 96, ptr %24) #3
  call void @_ZN2cv5utils5trace7details6RegionD2Ev(ptr noundef nonnull align 8 dereferenceable(12) %23) #3
  call void @llvm.lifetime.end.p0(i64 16, ptr %23) #3
  ret void

59:                                               ; preds = %11
  %60 = landingpad { ptr, i32 }
          cleanup
  %61 = extractvalue { ptr, i32 } %60, 0
  store ptr %61, ptr %27, align 8
  %62 = extractvalue { ptr, i32 } %60, 1
  store i32 %62, ptr %28, align 4
  br label %67

63:                                               ; preds = %39, %37, %33
  %64 = landingpad { ptr, i32 }
          cleanup
  %65 = extractvalue { ptr, i32 } %64, 0
  store ptr %65, ptr %27, align 8
  %66 = extractvalue { ptr, i32 } %64, 1
  store i32 %66, ptr %28, align 4
  call void @_ZN2cv11_InputArrayD2Ev(ptr noundef nonnull align 8 dereferenceable(24) %26) #3
  br label %67

67:                                               ; preds = %63, %59
  call void @llvm.lifetime.end.p0(i64 24, ptr %26) #3
  br label %91

68:                                               ; preds = %40
  %69 = landingpad { ptr, i32 }
          cleanup
  %70 = extractvalue { ptr, i32 } %69, 0
  store ptr %70, ptr %27, align 8
  %71 = extractvalue { ptr, i32 } %69, 1
  store i32 %71, ptr %28, align 4
  br label %76

72:                                               ; preds = %48, %46, %42
  %73 = landingpad { ptr, i32 }
          cleanup
  %74 = extractvalue { ptr, i32 } %73, 0
  store ptr %74, ptr %27, align 8
  %75 = extractvalue { ptr, i32 } %73, 1
  store i32 %75, ptr %28, align 4
  call void @_ZN2cv11_InputArrayD2Ev(ptr noundef nonnull align 8 dereferenceable(24) %29) #3
  br label %76

76:                                               ; preds = %72, %68
  call void @llvm.lifetime.end.p0(i64 24, ptr %29) #3
  br label %91

77:                                               ; preds = %49
  %78 = landingpad { ptr, i32 }
          cleanup
  %79 = extractvalue { ptr, i32 } %78, 0
  store ptr %79, ptr %27, align 8
  %80 = extractvalue { ptr, i32 } %78, 1
  store i32 %80, ptr %28, align 4
  br label %90

81:                                               ; preds = %50
  %82 = landingpad { ptr, i32 }
          cleanup
  %83 = extractvalue { ptr, i32 } %82, 0
  store ptr %83, ptr %27, align 8
  %84 = extractvalue { ptr, i32 } %82, 1
  store i32 %84, ptr %28, align 4
  br label %89

85:                                               ; preds = %51
  %86 = landingpad { ptr, i32 }
          cleanup
  %87 = extractvalue { ptr, i32 } %86, 0
  store ptr %87, ptr %27, align 8
  %88 = extractvalue { ptr, i32 } %86, 1
  store i32 %88, ptr %28, align 4
  call void @_ZN2cv11_InputArrayD2Ev(ptr noundef nonnull align 8 dereferenceable(24) %31) #3
  br label %89

89:                                               ; preds = %85, %81
  call void @llvm.lifetime.end.p0(i64 24, ptr %31) #3
  call void @_ZN2cv11_InputArrayD2Ev(ptr noundef nonnull align 8 dereferenceable(24) %30) #3
  br label %90

90:                                               ; preds = %89, %77
  call void @llvm.lifetime.end.p0(i64 24, ptr %30) #3
  br label %91

91:                                               ; preds = %90, %76, %67
  call void @_ZN2cv3MatD1Ev(ptr noundef nonnull align 8 dereferenceable(96) %25) #3
  call void @llvm.lifetime.end.p0(i64 96, ptr %25) #3
  call void @_ZN2cv3MatD1Ev(ptr noundef nonnull align 8 dereferenceable(96) %24) #3
  call void @llvm.lifetime.end.p0(i64 96, ptr %24) #3
  call void @_ZN2cv5utils5trace7details6RegionD2Ev(ptr noundef nonnull align 8 dereferenceable(12) %23) #3
  call void @llvm.lifetime.end.p0(i64 16, ptr %23) #3
  br label %92

92:                                               ; preds = %91
  %93 = load ptr, ptr %27, align 8
  %94 = load i32, ptr %28, align 4
  %95 = insertvalue { ptr, i32 } poison, ptr %93, 0
  %96 = insertvalue { ptr, i32 } %95, i32 %94, 1
  resume { ptr, i32 } %96
}