; Function Attrs: mustprogress uwtable
define void @_ZN2cv16findEssentialMatERKNS_11_InputArrayES2_S2_S2_S2_S2_iddRKNS_12_OutputArrayE(ptr dead_on_unwind noalias writable sret(%"class.cv::Mat") align 8 %0, ptr noundef nonnull align 8 dereferenceable(24) %1, ptr noundef nonnull align 8 dereferenceable(24) %2, ptr noundef nonnull align 8 dereferenceable(24) %3, ptr noundef nonnull align 8 dereferenceable(24) %4, ptr noundef nonnull align 8 dereferenceable(24) %5, ptr noundef nonnull align 8 dereferenceable(24) %6, i32 noundef %7, double noundef %8, double noundef %9, ptr noundef nonnull align 8 dereferenceable(24) %10) local_unnamed_addr #3 personality ptr @__gxx_personality_v0 {
  %12 = alloca %"class.cv::utils::trace::details::Region", align 8
  %13 = alloca %"class.cv::Mat", align 8
  %14 = alloca %"class.cv::Mat", align 8
  %15 = alloca %"class.cv::_OutputArray", align 8
  %16 = alloca %"class.cv::_OutputArray", align 8
  %17 = alloca %"class.cv::_InputArray", align 8
  %18 = alloca %"class.cv::_InputArray", align 8
  call void @llvm.lifetime.start.p0(i64 16, ptr nonnull %12) #22
  call void @_ZN2cv5utils5trace7details6RegionC1ERKNS3_21LocationStaticStorageE(ptr noundef nonnull align 8 dereferenceable(12) %12, ptr noundef nonnull align 8 dereferenceable(32) @_ZZN2cv16findEssentialMatERKNS_11_InputArrayES2_S2_S2_S2_S2_iddRKNS_12_OutputArrayEE25__cv_trace_location_fn524)
  call void @llvm.lifetime.start.p0(i64 96, ptr nonnull %13) #22
  call void @_ZN2cv3MatC1Ev(ptr noundef nonnull align 8 dereferenceable(96) %13) #22
  call void @llvm.lifetime.start.p0(i64 96, ptr nonnull %14) #22
  call void @_ZN2cv3MatC1Ev(ptr noundef nonnull align 8 dereferenceable(96) %14) #22
  call void @llvm.lifetime.start.p0(i64 24, ptr nonnull %15) #22
  %19 = getelementptr inbounds nuw i8, ptr %15, i64 8
  %20 = getelementptr inbounds nuw i8, ptr %15, i64 16
  store i64 0, ptr %20, align 8
  store i32 33619968, ptr %15, align 8, !tbaa !13
  store ptr %13, ptr %19, align 8, !tbaa !3
  %21 = invoke noundef nonnull align 8 dereferenceable(24) ptr @_ZN2cv7noArrayEv()
          to label %22 unwind label %46

22:                                               ; preds = %11
  %23 = invoke noundef nonnull align 8 dereferenceable(24) ptr @_ZN2cv7noArrayEv()
          to label %24 unwind label %46

24:                                               ; preds = %22
  invoke void @_ZN2cv15undistortPointsERKNS_11_InputArrayERKNS_12_OutputArrayES2_S2_S2_S2_(ptr noundef nonnull align 8 dereferenceable(24) %1, ptr noundef nonnull align 8 dereferenceable(24) %15, ptr noundef nonnull align 8 dereferenceable(24) %3, ptr noundef nonnull align 8 dereferenceable(24) %4, ptr noundef nonnull align 8 dereferenceable(24) %21, ptr noundef nonnull align 8 dereferenceable(24) %23)
          to label %25 unwind label %46

25:                                               ; preds = %24
  call void @llvm.lifetime.end.p0(i64 24, ptr nonnull %15) #22
  call void @llvm.lifetime.start.p0(i64 24, ptr nonnull %16) #22
  %26 = getelementptr inbounds nuw i8, ptr %16, i64 8
  %27 = getelementptr inbounds nuw i8, ptr %16, i64 16
  store i64 0, ptr %27, align 8
  store i32 33619968, ptr %16, align 8, !tbaa !13
  store ptr %14, ptr %26, align 8, !tbaa !3
  %28 = invoke noundef nonnull align 8 dereferenceable(24) ptr @_ZN2cv7noArrayEv()
          to label %29 unwind label %48

29:                                               ; preds = %25
  %30 = invoke noundef nonnull align 8 dereferenceable(24) ptr @_ZN2cv7noArrayEv()
          to label %31 unwind label %48

31:                                               ; preds = %29
  invoke void @_ZN2cv15undistortPointsERKNS_11_InputArrayERKNS_12_OutputArrayES2_S2_S2_S2_(ptr noundef nonnull align 8 dereferenceable(24) %2, ptr noundef nonnull align 8 dereferenceable(24) %16, ptr noundef nonnull align 8 dereferenceable(24) %5, ptr noundef nonnull align 8 dereferenceable(24) %6, ptr noundef nonnull align 8 dereferenceable(24) %28, ptr noundef nonnull align 8 dereferenceable(24) %30)
          to label %32 unwind label %48

32:                                               ; preds = %31
  call void @llvm.lifetime.end.p0(i64 24, ptr nonnull %16) #22
  call void @llvm.lifetime.start.p0(i64 24, ptr nonnull %17) #22
  %33 = getelementptr inbounds nuw i8, ptr %17, i64 16
  store i32 0, ptr %33, align 8, !tbaa !95
  %34 = getelementptr inbounds nuw i8, ptr %17, i64 20
  store i32 0, ptr %34, align 4, !tbaa !96
  store i32 16842752, ptr %17, align 8, !tbaa !13
  %35 = getelementptr inbounds nuw i8, ptr %17, i64 8
  store ptr %13, ptr %35, align 8, !tbaa !3
  call void @llvm.lifetime.start.p0(i64 24, ptr nonnull %18) #22
  %36 = getelementptr inbounds nuw i8, ptr %18, i64 16
  store i32 0, ptr %36, align 8, !tbaa !95
  %37 = getelementptr inbounds nuw i8, ptr %18, i64 20
  store i32 0, ptr %37, align 4, !tbaa !96
  store i32 16842752, ptr %18, align 8, !tbaa !13
  %38 = getelementptr inbounds nuw i8, ptr %18, i64 8
  store ptr %14, ptr %38, align 8, !tbaa !3
  invoke fastcc void @_ZN2cvL17findEssentialMat_ERKNS_11_InputArrayES2_S2_S2_iddRKNS_12_OutputArrayE(ptr dead_on_unwind noalias writable align 8 %0, ptr noundef nonnull align 8 dereferenceable(24) %17, ptr noundef nonnull align 8 dereferenceable(24) %18, ptr noundef nonnull align 8 dereferenceable(24) %3, ptr noundef nonnull align 8 dereferenceable(24) %5, i32 noundef %7, double noundef %8, double noundef %9, ptr noundef nonnull align 8 dereferenceable(24) %10)
          to label %39 unwind label %50

39:                                               ; preds = %32
  call void @llvm.lifetime.end.p0(i64 24, ptr nonnull %18) #22
  call void @llvm.lifetime.end.p0(i64 24, ptr nonnull %17) #22
  call void @_ZN2cv3MatD1Ev(ptr noundef nonnull align 8 dereferenceable(96) %14) #22
  call void @llvm.lifetime.end.p0(i64 96, ptr nonnull %14) #22
  call void @_ZN2cv3MatD1Ev(ptr noundef nonnull align 8 dereferenceable(96) %13) #22
  call void @llvm.lifetime.end.p0(i64 96, ptr nonnull %13) #22
  %40 = getelementptr inbounds nuw i8, ptr %12, i64 8
  %41 = load i32, ptr %40, align 8, !tbaa !105
  %.not.i = icmp eq i32 %41, 0
  br i1 %.not.i, label %_ZN2cv5utils5trace7details6RegionD2Ev.exit, label %42

42:                                               ; preds = %39
  invoke void @_ZN2cv5utils5trace7details6Region7destroyEv(ptr noundef nonnull align 8 dereferenceable(12) %12)
          to label %_ZN2cv5utils5trace7details6RegionD2Ev.exit unwind label %43

43:                                               ; preds = %42
  %44 = landingpad { ptr, i32 }
          catch ptr null
  %45 = extractvalue { ptr, i32 } %44, 0
  call void @__clang_call_terminate(ptr %45) #26
  unreachable

_ZN2cv5utils5trace7details6RegionD2Ev.exit:       ; preds = %39, %42
  call void @llvm.lifetime.end.p0(i64 16, ptr nonnull %12) #22
  ret void

46:                                               ; preds = %24, %22, %11
  %47 = landingpad { ptr, i32 }
          cleanup
  call void @llvm.lifetime.end.p0(i64 24, ptr nonnull %15) #22
  br label %52

48:                                               ; preds = %31, %29, %25
  %49 = landingpad { ptr, i32 }
          cleanup
  call void @llvm.lifetime.end.p0(i64 24, ptr nonnull %16) #22
  br label %52

50:                                               ; preds = %32
  %51 = landingpad { ptr, i32 }
          cleanup
  call void @llvm.lifetime.end.p0(i64 24, ptr nonnull %18) #22
  call void @llvm.lifetime.end.p0(i64 24, ptr nonnull %17) #22
  br label %52

52:                                               ; preds = %50, %48, %46
  %.pn21.pn.pn = phi { ptr, i32 } [ %51, %50 ], [ %49, %48 ], [ %47, %46 ]
  call void @_ZN2cv3MatD1Ev(ptr noundef nonnull align 8 dereferenceable(96) %14) #22
  call void @llvm.lifetime.end.p0(i64 96, ptr nonnull %14) #22
  call void @_ZN2cv3MatD1Ev(ptr noundef nonnull align 8 dereferenceable(96) %13) #22
  call void @llvm.lifetime.end.p0(i64 96, ptr nonnull %13) #22
  call void @_ZN2cv5utils5trace7details6RegionD2Ev(ptr noundef nonnull align 8 dereferenceable(12) %12) #22
  call void @llvm.lifetime.end.p0(i64 16, ptr nonnull %12) #22
  resume { ptr, i32 } %.pn21.pn.pn
}